	.file	"BST.c"
	.intel_syntax noprefix
	.text
.Ltext0:
	.section	.rodata.str1.1,"aMS",@progbits,1
.LC0:
	.string	"talloc failed."
	.text
	.p2align 4,,15
	.globl	talloc
	.type	talloc, @function
talloc:
.LFB38:
	.file 1 "BST.c"
	.loc 1 4 0
	.cfi_startproc
	push	rbx
	.cfi_def_cfa_offset 16
	.cfi_offset 3, -16
	.loc 1 6 0
	mov	esi, 24
	mov	edi, 1
	call	calloc
.LVL0:
	.loc 1 7 0
	test	rax, rax
	.loc 1 6 0
	mov	rbx, rax
.LVL1:
	.loc 1 7 0
	je	.L5
.LVL2:
.L2:
	.loc 1 13 0
	mov	rax, rbx
	pop	rbx
	.cfi_remember_state
	.cfi_def_cfa_offset 8
.LVL3:
	ret
.L5:
	.cfi_restore_state
.LVL4:
.LBB32:
.LBB33:
.LBB34:
	.file 2 "/usr/include/x86_64-linux-gnu/bits/stdio2.h"
	.loc 2 104 0
	mov	esi, OFFSET FLAT:.LC0
	mov	edi, 1
	xor	eax, eax
.LVL5:
	call	__printf_chk
.LVL6:
	jmp	.L2
.LBE34:
.LBE33:
.LBE32:
	.cfi_endproc
.LFE38:
	.size	talloc, .-talloc
	.section	.rodata.str1.1
.LC1:
	.string	"ROOT VAL: %d\t length %d\n"
.LC2:
	.string	"%d"
	.section	.rodata.str1.8,"aMS",@progbits,1
	.align 8
.LC3:
	.string	"making left child with parent of %d with %d\n"
	.section	.rodata.str1.1
.LC4:
	.string	"recursing root l"
	.section	.rodata.str1.8
	.align 8
.LC5:
	.string	"making right child with parent of %d with %d\n"
	.section	.rodata.str1.1
.LC6:
	.string	"recursing root r"
.LC7:
	.string	"before return, ROOT:%d"
	.text
	.p2align 4,,15
	.globl	construct
	.type	construct, @function
construct:
.LFB39:
	.loc 1 16 0
	.cfi_startproc
.LVL7:
	push	r12
	.cfi_def_cfa_offset 16
	.cfi_offset 12, -16
	mov	r12, rdi
	push	rbp
	.cfi_def_cfa_offset 24
	.cfi_offset 6, -24
	mov	ebp, esi
	push	rbx
	.cfi_def_cfa_offset 32
	.cfi_offset 3, -32
	mov	rbx, rdi
	sub	rsp, 16
	.cfi_def_cfa_offset 48
	.loc 1 17 0
	test	esi, esi
	jle	.L7
.LVL8:
.LBB35:
.LBB36:
	.loc 2 104 0
	mov	edx, DWORD PTR [rdi]
	mov	ecx, esi
	mov	edi, 1
.LVL9:
	mov	esi, OFFSET FLAT:.LC1
.LVL10:
	xor	eax, eax
	call	__printf_chk
.LVL11:
.LBE36:
.LBE35:
	.loc 1 20 0
	mov	rdi, QWORD PTR fp[rip]
	lea	rdx, [rsp+12]
	mov	esi, OFFSET FLAT:.LC2
	xor	eax, eax
	call	__isoc99_fscanf
.LVL12:
	.loc 1 21 0
	xor	eax, eax
	call	talloc
.LVL13:
	.loc 1 22 0
	mov	ecx, DWORD PTR [rsp+12]
	mov	DWORD PTR [rax], ecx
	.loc 1 24 0
	mov	edx, DWORD PTR [rbx]
	cmp	ecx, edx
	jl	.L15
	.loc 1 41 0
	cmp	QWORD PTR [rbx+16], 0
	je	.L16
.LVL14:
.LBB37:
.LBB38:
	.loc 2 104 0
	mov	edi, OFFSET FLAT:.LC6
	call	puts
.LVL15:
.LBE38:
.LBE37:
	.loc 1 50 0
	mov	rdi, QWORD PTR [rbx+16]
	lea	esi, [rbp-1]
	call	construct
.LVL16:
.L10:
.LBB39:
.LBB40:
	.loc 2 104 0
	mov	edx, DWORD PTR [rbx]
	mov	esi, OFFSET FLAT:.LC7
	mov	edi, 1
	xor	eax, eax
.LBE40:
.LBE39:
	.loc 1 54 0
	mov	r12, rbx
.LBB42:
.LBB41:
	.loc 2 104 0
	call	__printf_chk
.LVL17:
.L7:
.LBE41:
.LBE42:
	.loc 1 55 0
	add	rsp, 16
	.cfi_remember_state
	.cfi_def_cfa_offset 32
	mov	rax, r12
	pop	rbx
	.cfi_def_cfa_offset 24
.LVL18:
	pop	rbp
	.cfi_def_cfa_offset 16
.LVL19:
	pop	r12
	.cfi_def_cfa_offset 8
.LVL20:
	ret
.LVL21:
	.p2align 4,,10
	.p2align 3
.L15:
	.cfi_restore_state
	.loc 1 26 0
	cmp	QWORD PTR [rbx+8], 0
	je	.L17
.LVL22:
.LBB43:
.LBB44:
	.loc 2 104 0
	mov	edi, OFFSET FLAT:.LC4
	call	puts
.LVL23:
.LBE44:
.LBE43:
	.loc 1 36 0
	mov	rdi, QWORD PTR [rbx+8]
	lea	esi, [rbp-1]
	call	construct
.LVL24:
	.loc 1 55 0
	add	rsp, 16
	.cfi_remember_state
	.cfi_def_cfa_offset 32
	.loc 1 36 0
	mov	r12, rax
	.loc 1 55 0
	pop	rbx
	.cfi_def_cfa_offset 24
.LVL25:
	pop	rbp
	.cfi_def_cfa_offset 16
.LVL26:
	mov	rax, r12
	pop	r12
	.cfi_def_cfa_offset 8
	ret
.LVL27:
	.p2align 4,,10
	.p2align 3
.L17:
	.cfi_restore_state
	.loc 1 28 0
	mov	QWORD PTR [rbx+8], rax
.LVL28:
.LBB45:
.LBB46:
	.loc 2 104 0
	mov	esi, OFFSET FLAT:.LC3
.LVL29:
.L14:
.LBE46:
.LBE45:
.LBB47:
.LBB48:
	mov	edi, 1
	xor	eax, eax
.LVL30:
	call	__printf_chk
.LVL31:
.LBE48:
.LBE47:
	.loc 1 45 0
	lea	esi, [rbp-1]
	mov	rdi, rbx
	call	construct
.LVL32:
	jmp	.L10
.LVL33:
	.p2align 4,,10
	.p2align 3
.L16:
	.loc 1 43 0
	mov	QWORD PTR [rbx+16], rax
.LVL34:
.LBB50:
.LBB49:
	.loc 2 104 0
	mov	esi, OFFSET FLAT:.LC5
	jmp	.L14
.LBE49:
.LBE50:
	.cfi_endproc
.LFE39:
	.size	construct, .-construct
	.section	.rodata.str1.1
.LC8:
	.string	"%d\n"
	.text
	.p2align 4,,15
	.globl	printLTR
	.type	printLTR, @function
printLTR:
.LFB40:
	.loc 1 57 0
	.cfi_startproc
.LVL35:
	.loc 1 58 0
	test	rdi, rdi
	.loc 1 57 0
	push	rbx
	.cfi_def_cfa_offset 16
	.cfi_offset 3, -16
	.loc 1 57 0
	mov	rbx, rdi
	.loc 1 58 0
	je	.L20
.LVL36:
.LBB51:
.LBB52:
	.loc 2 104 0
	mov	edx, DWORD PTR [rdi]
	xor	eax, eax
	mov	esi, OFFSET FLAT:.LC8
	mov	edi, 1
.LVL37:
	call	__printf_chk
.LVL38:
.LBE52:
.LBE51:
	.loc 1 61 0
	mov	rax, QWORD PTR [rbx+8]
	test	rax, rax
	je	.L21
.LVL39:
.LBB53:
.LBB54:
	.loc 2 104 0 discriminator 1
	mov	edx, DWORD PTR [rax]
	mov	esi, OFFSET FLAT:.LC8
	mov	edi, 1
	xor	eax, eax
	call	__printf_chk
.LVL40:
.L21:
.LBE54:
.LBE53:
	.loc 1 62 0
	mov	rax, QWORD PTR [rbx+16]
	test	rax, rax
	je	.L20
.LVL41:
.LBB55:
.LBB56:
	.loc 2 104 0 discriminator 1
	mov	edx, DWORD PTR [rax]
	mov	esi, OFFSET FLAT:.LC8
	mov	edi, 1
	xor	eax, eax
	call	__printf_chk
.LVL42:
.L20:
.LBE56:
.LBE55:
	.loc 1 65 0
	mov	rax, rbx
	pop	rbx
	.cfi_def_cfa_offset 8
.LVL43:
	ret
	.cfi_endproc
.LFE40:
	.size	printLTR, .-printLTR
	.section	.rodata.str1.1
.LC9:
	.string	"before root"
.LC10:
	.string	"r"
.LC11:
	.string	"BST.in"
.LC12:
	.string	"after root"
	.section	.text.startup,"ax",@progbits
	.p2align 4,,15
	.globl	main
	.type	main, @function
main:
.LFB41:
	.loc 1 69 0
	.cfi_startproc
.LVL44:
	push	rbx
	.cfi_def_cfa_offset 16
	.cfi_offset 3, -16
.LBB57:
.LBB58:
	.loc 2 104 0
	mov	edi, OFFSET FLAT:.LC9
.LVL45:
.LBE58:
.LBE57:
	.loc 1 69 0
	sub	rsp, 16
	.cfi_def_cfa_offset 32
.LBB60:
.LBB59:
	.loc 2 104 0
	call	puts
.LVL46:
.LBE59:
.LBE60:
	.loc 1 72 0
	mov	esi, OFFSET FLAT:.LC10
	mov	edi, OFFSET FLAT:.LC11
	call	fopen
.LVL47:
	.loc 1 73 0
	lea	rdx, [rsp+12]
	mov	rdi, rax
	mov	esi, OFFSET FLAT:.LC2
	.loc 1 72 0
	mov	QWORD PTR fp[rip], rax
	.loc 1 73 0
	xor	eax, eax
	call	__isoc99_fscanf
.LVL48:
	.loc 1 75 0
	xor	eax, eax
	call	talloc
.LVL49:
	.loc 1 76 0
	mov	rdi, QWORD PTR fp[rip]
	mov	rdx, rax
	.loc 1 75 0
	mov	rbx, rax
.LVL50:
	.loc 1 76 0
	mov	esi, OFFSET FLAT:.LC2
	xor	eax, eax
.LVL51:
	call	__isoc99_fscanf
.LVL52:
	.loc 1 77 0
	mov	esi, DWORD PTR [rsp+12]
	mov	rdi, rbx
	call	construct
.LVL53:
.LBB61:
.LBB62:
	.loc 2 104 0
	mov	edi, OFFSET FLAT:.LC12
	call	puts
.LVL54:
.LBE62:
.LBE61:
	.loc 1 79 0
	mov	rdi, rbx
	call	printLTR
.LVL55:
	.loc 1 81 0
	add	rsp, 16
	.cfi_def_cfa_offset 16
	xor	eax, eax
	pop	rbx
	.cfi_def_cfa_offset 8
.LVL56:
	ret
	.cfi_endproc
.LFE41:
	.size	main, .-main
	.local	fp
	.comm	fp,8,8
	.globl	i
	.bss
	.align 4
	.type	i, @object
	.size	i, 4
i:
	.zero	4
	.comm	nums,4096,32
	.text
.Letext0:
	.file 3 "/usr/lib/gcc/x86_64-linux-gnu/4.8/include/stddef.h"
	.file 4 "/usr/include/x86_64-linux-gnu/bits/types.h"
	.file 5 "/usr/include/stdio.h"
	.file 6 "/usr/include/libio.h"
	.file 7 "BST.h"
	.file 8 "/usr/include/stdlib.h"
	.file 9 "<built-in>"
	.section	.note.GNU-stack,"",@progbits
